; Function Attrs: mustprogress uwtable
define internal noundef zeroext i1 @_ZN32pxrInternal_v0_24__pxrReserved__L19_TestDependencyTypeERKNS_26UsdPrimCompositionQueryArcERKNS_23UsdPrimCompositionQuery6FilterE(ptr noundef nonnull align 8 dereferenceable(64) %0, ptr noundef nonnull readonly align 4 captures(none) dereferenceable(16) %1) #0 {
  %3 = getelementptr inbounds nuw i8, ptr %1, i64 4
  %4 = load i32, ptr %3, align 4
  switch i32 %4, label %10 [
    i32 2, label %8
    i32 1, label %5
  ]

5:                                                ; preds = %2
  %6 = tail call noundef zeroext i1 @_ZNK32pxrInternal_v0_24__pxrReserved__10PcpNodeRef15IsDueToAncestorEv(ptr noundef nonnull align 8 dereferenceable(64) %0)
  %7 = xor i1 %6, true
  br label %10

8:                                                ; preds = %2
  %9 = tail call noundef zeroext i1 @_ZNK32pxrInternal_v0_24__pxrReserved__10PcpNodeRef15IsDueToAncestorEv(ptr noundef nonnull align 8 dereferenceable(64) %0)
  br label %10

10:                                               ; preds = %2, %8, %5
  %.0 = phi i1 [ %9, %8 ], [ %7, %5 ], [ true, %2 ]
  ret i1 %.0
}